target datalayout = "e-m:e-p270:32:32-p271:32:32-p272:64:64-i64:64-i128:128-f80:128-n8:16:32:64-S128"
target triple = "x86_64-pc-linux-gnu"

@commandQueueLock = internal global ptr null, align 8
@holdEvents = internal global i8 0, align 1
@blockCommandLoopLock = internal global ptr null, align 8
@blockCommandLoop = internal global i8 0, align 1
@currentSessionID = internal global i32 0, align 4

; Function Attrs: nounwind uwtable
define hidden void @unblockCommandLoop() #0 {
  %1 = load ptr, ptr @blockCommandLoopLock, align 8
  call void @debugMonitorEnter(ptr noundef %1)
  store i8 0, ptr @blockCommandLoop, align 1
  %2 = load ptr, ptr @blockCommandLoopLock, align 8
  call void @debugMonitorNotifyAll(ptr noundef %2)
  %3 = load ptr, ptr @blockCommandLoopLock, align 8
  call void @debugMonitorExit(ptr noundef %3)
  ret void
}

; Function Attrs: nounwind uwtable
define hidden void @eventHelper_reset(i8 noundef signext %0) #0 {
  %2 = alloca i8, align 1
  store i8 %0, ptr %2, align 1
  %3 = load ptr, ptr @commandQueueLock, align 8
  call void @debugMonitorEnter(ptr noundef %3)
  %4 = load i8, ptr %2, align 1
  %5 = sext i8 %4 to i32
  store i32 %5, ptr @currentSessionID, align 4
  store i8 0, ptr @holdEvents, align 1
  %6 = load ptr, ptr @commandQueueLock, align 8
  call void @debugMonitorNotifyAll(ptr noundef %6)
  %7 = load ptr, ptr @commandQueueLock, align 8
  call void @debugMonitorExit(ptr noundef %7)
  call void @unblockCommandLoop()
  ret void
}