; Function Attrs: nounwind uwtable
define hidden void @eventHelper_reset(i8 noundef signext %0) local_unnamed_addr #0 {
  %2 = load ptr, ptr @commandQueueLock, align 8
  tail call void @debugMonitorEnter(ptr noundef %2) #9
  %3 = sext i8 %0 to i32
  store i32 %3, ptr @currentSessionID, align 4
  store i1 false, ptr @holdEvents, align 1
  %4 = load ptr, ptr @commandQueueLock, align 8
  tail call void @debugMonitorNotifyAll(ptr noundef %4) #9
  %5 = load ptr, ptr @commandQueueLock, align 8
  tail call void @debugMonitorExit(ptr noundef %5) #9
  %6 = load ptr, ptr @blockCommandLoopLock, align 8
  tail call void @debugMonitorEnter(ptr noundef %6) #9
  store i1 false, ptr @blockCommandLoop, align 1
  %7 = load ptr, ptr @blockCommandLoopLock, align 8
  tail call void @debugMonitorNotifyAll(ptr noundef %7) #9
  %8 = load ptr, ptr @blockCommandLoopLock, align 8
  tail call void @debugMonitorExit(ptr noundef %8) #9
  ret void
}